target datalayout = "e-m:e-p270:32:32-p271:32:32-p272:64:64-i64:64-i128:128-f80:128-n8:16:32:64-S128"
target triple = "x86_64-pc-linux-gnu"

%class.OopHandle = type { ptr }
%class.ShenandoahHeuristics = type <{ ptr, ptr, ptr, double, double, i64, i64, ptr, %struct.ShenandoahSharedFlag, [7 x i8] }>
%struct.ShenandoahSharedFlag = type { [64 x i8], i8, [64 x i8] }
%class.ShenandoahHeap = type <{ %class.CollectedHeap, %class.ShenandoahSpaceInfo, %class.ShenandoahLock, i64, i64, i64, [64 x i8], i64, i64, i64, [64 x i8], i32, [4 x i8], ptr, ptr, %class.MemRegion, i8, [7 x i8], i64, ptr, %class.ShenandoahRegionIterator, i8, %struct.ShenandoahSharedBitmap, %struct.ShenandoahSharedFlag, %struct.ShenandoahSharedFlag, %struct.ShenandoahSharedFlag, %struct.ShenandoahSharedFlag, %struct.ShenandoahSharedFlag, i8, i64, %struct.ShenandoahSharedEnumFlag, [7 x i8], ptr, ptr, ptr, ptr, ptr, ptr, ptr, ptr, ptr, ptr, %class.GCMemoryManager, %class.GCMemoryManager, ptr, i32, [4 x i8], ptr, %struct.ShenandoahSharedFlag, %class.ShenandoahUnload, [6 x i8], ptr, %class.MemRegion, %class.MemRegion, %class.MarkBitMap, %class.MarkBitMap, i64, i64, i64, i64, i64, i8, i8, [6 x i8], ptr, ptr, %class.ShenandoahEvacOOMHandler, %struct.ShenandoahSharedFlag, [7 x i8] }>
%class.CollectedHeap = type { ptr, ptr, i64, i64, %class.SoftRefPolicy, %class.MemRegion, i8, i64, i32, i32, i32, i32, ptr, ptr }
%class.SoftRefPolicy = type { i8, i8 }
%class.ShenandoahSpaceInfo = type { ptr }
%class.ShenandoahLock = type { [64 x i8], i32, [64 x i8], ptr, [64 x i8] }
%class.ShenandoahRegionIterator = type { ptr, [64 x i8], i64, [64 x i8] }
%struct.ShenandoahSharedBitmap = type { [64 x i8], i8, [64 x i8] }
%struct.ShenandoahSharedEnumFlag = type { [64 x i8], i8, [64 x i8] }
%class.GCMemoryManager = type <{ %class.MemoryManager.base, [7 x i8], i64, %class.elapsedTimer, ptr, ptr, ptr, i32, i8, [10 x i8], i8 }>
%class.MemoryManager.base = type <{ ptr, [10 x ptr], i32, [4 x i8], ptr, %class.OopHandle, i8 }>
%class.elapsedTimer = type <{ i64, i64, i8, [7 x i8] }>
%class.ShenandoahUnload = type { i8 }
%class.MemRegion = type { ptr, i64 }
%class.MarkBitMap = type { ptr, %class.MemRegion, i32, %class.BitMapView }
%class.BitMapView = type { %class.BitMap }
%class.BitMap = type { ptr, i64 }
%class.ShenandoahEvacOOMHandler = type { i32, [64 x i8], ptr }
%"struct.Atomic::StoreImpl" = type { i8 }
%"struct.Atomic::PlatformOrderedStore" = type { i8 }

@ShenandoahAdaptiveDecayFactor = external global double, align 8
@_ZN8Universe14_collectedHeapE = external global ptr, align 8

; Function Attrs: mustprogress nounwind uwtable
define linkonce_odr hidden void @_ZNK6Atomic20PlatformOrderedStoreILm1EL15ScopedFenceType2EEclIaEEvPVT_S4_(ptr noundef nonnull align 1 dereferenceable(1) %0, ptr noundef %1, i8 noundef signext %2) #1 comdat align 2 {
  %4 = alloca ptr, align 8
  %5 = alloca ptr, align 8
  %6 = alloca i8, align 1
  store ptr %0, ptr %4, align 8
  store ptr %1, ptr %5, align 8
  store i8 %2, ptr %6, align 1
  %7 = load i8, ptr %6, align 1
  %8 = load ptr, ptr %5, align 8
  %9 = call i8 asm sideeffect "xchgb ($2),$0", "=q,0,r,~{memory},~{dirflag},~{fpsr},~{flags}"(i8 %7, ptr %8) #5, !srcloc !8
  store i8 %9, ptr %6, align 1
  ret void
}

; Function Attrs: mustprogress nounwind uwtable
define linkonce_odr hidden void @_ZNK6Atomic9StoreImplIaaNS_20PlatformOrderedStoreILm1EL15ScopedFenceType2EEEvEclEPVaa(ptr noundef nonnull align 1 dereferenceable(1) %0, ptr noundef %1, i8 noundef signext %2) #1 comdat align 2 {
  %4 = alloca ptr, align 8
  %5 = alloca ptr, align 8
  %6 = alloca i8, align 1
  %7 = alloca %"struct.Atomic::PlatformOrderedStore", align 1
  store ptr %0, ptr %4, align 8
  store ptr %1, ptr %5, align 8
  store i8 %2, ptr %6, align 1
  %8 = load ptr, ptr %5, align 8
  %9 = load i8, ptr %6, align 1
  call void @_ZNK6Atomic20PlatformOrderedStoreILm1EL15ScopedFenceType2EEclIaEEvPVT_S4_(ptr noundef nonnull align 1 dereferenceable(1) %7, ptr noundef %8, i8 noundef signext %9)
  ret void
}

; Function Attrs: mustprogress nounwind uwtable
define linkonce_odr hidden noundef ptr @_ZN8Universe4heapEv() #1 comdat align 2 {
  %1 = load ptr, ptr @_ZN8Universe14_collectedHeapE, align 8
  ret ptr %1
}

; Function Attrs: mustprogress nounwind uwtable
define linkonce_odr hidden void @_ZN6Atomic19release_store_fenceIaaEEvPVT_T0_(ptr noundef %0, i8 noundef signext %1) #1 comdat align 2 {
  %3 = alloca ptr, align 8
  %4 = alloca i8, align 1
  %5 = alloca %"struct.Atomic::StoreImpl", align 1
  store ptr %0, ptr %3, align 8
  store i8 %1, ptr %4, align 1
  %6 = load ptr, ptr %3, align 8
  %7 = load i8, ptr %4, align 1
  call void @_ZNK6Atomic9StoreImplIaaNS_20PlatformOrderedStoreILm1EL15ScopedFenceType2EEEvEclEPVaa(ptr noundef nonnull align 1 dereferenceable(1) %5, ptr noundef %6, i8 noundef signext %7)
  ret void
}

; Function Attrs: mustprogress nounwind uwtable
define linkonce_odr hidden noundef ptr @_ZN13CollectedHeap10named_heapI14ShenandoahHeapEEPT_NS_4NameE(i32 noundef %0) #1 comdat align 2 {
  %2 = alloca i32, align 4
  %3 = alloca ptr, align 8
  store i32 %0, ptr %2, align 4
  %4 = call noundef ptr @_ZN8Universe4heapEv()
  store ptr %4, ptr %3, align 8
  %5 = load ptr, ptr %3, align 8
  ret ptr %5
}

; Function Attrs: mustprogress nounwind uwtable
define linkonce_odr hidden void @_ZN20ShenandoahSharedFlag5unsetEv(ptr noundef nonnull align 1 dereferenceable(129) %0) #1 comdat align 2 {
  %2 = alloca ptr, align 8
  store ptr %0, ptr %2, align 8
  %3 = load ptr, ptr %2, align 8
  %4 = getelementptr inbounds %struct.ShenandoahSharedFlag, ptr %3, i32 0, i32 1
  call void @_ZN6Atomic19release_store_fenceIaaEEvPVT_T0_(ptr noundef %4, i8 noundef signext 0)
  ret void
}

; Function Attrs: mustprogress nounwind uwtable
define linkonce_odr hidden noundef i64 @_ZNK14ShenandoahHeap11num_regionsEv(ptr noundef nonnull align 8 dereferenceable(2657) %0) #1 comdat align 2 {
  %2 = alloca ptr, align 8
  store ptr %0, ptr %2, align 8
  %3 = load ptr, ptr %2, align 8
  %4 = getelementptr inbounds %class.ShenandoahHeap, ptr %3, i32 0, i32 18
  %5 = load i64, ptr %4, align 8
  ret i64 %5
}

; Function Attrs: mustprogress nounwind uwtable
define linkonce_odr hidden noundef ptr @_ZN14ShenandoahHeap4heapEv() #1 comdat align 2 {
  %1 = call noundef ptr @_ZN13CollectedHeap10named_heapI14ShenandoahHeapEEPT_NS_4NameE(i32 noundef 6)
  ret ptr %1
}

; Function Attrs: mustprogress nounwind uwtable
define linkonce_odr hidden void @_ZN20ShenandoahSharedFlagC2Ev(ptr noundef nonnull align 1 dereferenceable(129) %0) unnamed_addr #1 comdat align 2 {
  %2 = alloca ptr, align 8
  store ptr %0, ptr %2, align 8
  %3 = load ptr, ptr %2, align 8
  call void @_ZN20ShenandoahSharedFlag5unsetEv(ptr noundef nonnull align 1 dereferenceable(129) %3)
  ret void
}

; Function Attrs: mustprogress nounwind uwtable
define hidden void @_ZN20ShenandoahHeuristicsC2EP19ShenandoahSpaceInfo(ptr noundef nonnull align 8 dereferenceable(193) %0, ptr noundef %1) unnamed_addr #1 align 2 {
  %3 = alloca i64, align 8
  %4 = alloca i8, align 1
  %5 = alloca i64, align 8
  %6 = alloca ptr, align 8
  %7 = alloca ptr, align 8
  %8 = alloca i64, align 8
  store ptr %0, ptr %6, align 8
  store ptr %1, ptr %7, align 8
  %9 = load ptr, ptr %6, align 8
  store ptr getelementptr inbounds inrange(-16, 152) ({ [21 x ptr] }, ptr @_ZTV20ShenandoahHeuristics, i32 0, i32 0, i32 2), ptr %9, align 8
  %10 = getelementptr inbounds %class.ShenandoahHeuristics, ptr %9, i32 0, i32 1
  %11 = load ptr, ptr %7, align 8
  store ptr %11, ptr %10, align 8
  %12 = getelementptr inbounds %class.ShenandoahHeuristics, ptr %9, i32 0, i32 2
  store ptr null, ptr %12, align 8
  %13 = getelementptr inbounds %class.ShenandoahHeuristics, ptr %9, i32 0, i32 3
  %14 = call noundef double @_ZN2os11elapsedTimeEv()
  store double %14, ptr %13, align 8
  %15 = getelementptr inbounds %class.ShenandoahHeuristics, ptr %9, i32 0, i32 4
  store double 0.000000e+00, ptr %15, align 8
  %16 = getelementptr inbounds %class.ShenandoahHeuristics, ptr %9, i32 0, i32 5
  store i64 0, ptr %16, align 8
  %17 = getelementptr inbounds %class.ShenandoahHeuristics, ptr %9, i32 0, i32 6
  store i64 0, ptr %17, align 8
  %18 = getelementptr inbounds %class.ShenandoahHeuristics, ptr %9, i32 0, i32 7
  store i64 72, ptr %5, align 8
  %19 = load i64, ptr %5, align 8
  store i64 %19, ptr %3, align 8
  store i8 9, ptr %4, align 1
  %20 = load i64, ptr %3, align 8
  %21 = load i8, ptr %4, align 1
  %22 = call noundef ptr @_Z12AllocateHeapm8MEMFLAGSN17AllocFailStrategy13AllocFailEnumE(i64 noundef %20, i8 noundef zeroext %21, i32 noundef 0) #5
  %23 = load double, ptr @ShenandoahAdaptiveDecayFactor, align 8
  call void @_ZN12TruncatedSeqC1Eid(ptr noundef nonnull align 8 dereferenceable(72) %22, i32 noundef 10, double noundef %23)
  store ptr %22, ptr %18, align 8
  %24 = getelementptr inbounds %class.ShenandoahHeuristics, ptr %9, i32 0, i32 8
  call void @_ZN20ShenandoahSharedFlagC2Ev(ptr noundef nonnull align 1 dereferenceable(129) %24)
  %25 = call noundef ptr @_ZN14ShenandoahHeap4heapEv()
  %26 = call noundef i64 @_ZNK14ShenandoahHeap11num_regionsEv(ptr noundef nonnull align 8 dereferenceable(2657) %25)
  store i64 %26, ptr %8, align 8
  %27 = load i64, ptr %8, align 8
  %28 = mul i64 %27, 16
  %29 = call noundef ptr @_Z12AllocateHeapm8MEMFLAGSN17AllocFailStrategy13AllocFailEnumE(i64 noundef %28, i8 noundef zeroext 5, i32 noundef 0)
  %30 = getelementptr inbounds %class.ShenandoahHeuristics, ptr %9, i32 0, i32 2
  store ptr %29, ptr %30, align 8
  ret void
}