; Function Attrs: mustprogress nounwind uwtable
define hidden void @_ZN20ShenandoahHeuristicsC2EP19ShenandoahSpaceInfo(ptr noundef nonnull align 8 dereferenceable(193) %0, ptr noundef %1) unnamed_addr #1 align 2 {
  store ptr getelementptr inbounds inrange(-16, 152) (i8, ptr @_ZTV20ShenandoahHeuristics, i64 16), ptr %0, align 8
  %3 = getelementptr inbounds i8, ptr %0, i64 8
  store ptr %1, ptr %3, align 8
  %4 = getelementptr inbounds i8, ptr %0, i64 16
  store ptr null, ptr %4, align 8
  %5 = getelementptr inbounds i8, ptr %0, i64 24
  %6 = tail call noundef double @_ZN2os11elapsedTimeEv() #14
  store double %6, ptr %5, align 8
  %7 = getelementptr inbounds i8, ptr %0, i64 32
  %8 = getelementptr inbounds i8, ptr %0, i64 56
  tail call void @llvm.memset.p0.i64(ptr noundef nonnull align 8 dereferenceable(24) %7, i8 0, i64 24, i1 false)
  %9 = tail call noundef ptr @_Z12AllocateHeapm8MEMFLAGSN17AllocFailStrategy13AllocFailEnumE(i64 noundef 72, i8 noundef zeroext 9, i32 noundef 0) #14
  %10 = load double, ptr @ShenandoahAdaptiveDecayFactor, align 8
  tail call void @_ZN12TruncatedSeqC1Eid(ptr noundef nonnull align 8 dereferenceable(72) %9, i32 noundef 10, double noundef %10) #14
  store ptr %9, ptr %8, align 8
  %11 = getelementptr inbounds i8, ptr %0, i64 128
  %12 = tail call i8 asm sideeffect "xchgb ($2),$0", "=q,0,r,~{memory},~{dirflag},~{fpsr},~{flags}"(i8 0, ptr nonnull %11) #14, !srcloc !6
  %13 = load ptr, ptr @_ZN8Universe14_collectedHeapE, align 8
  %14 = getelementptr inbounds i8, ptr %13, i64 544
  %15 = load i64, ptr %14, align 8
  %16 = shl i64 %15, 4
  %17 = tail call noundef ptr @_Z12AllocateHeapm8MEMFLAGSN17AllocFailStrategy13AllocFailEnumE(i64 noundef %16, i8 noundef zeroext 5, i32 noundef 0) #14
  store ptr %17, ptr %4, align 8
  ret void
}